; Function Attrs: mustprogress nofree norecurse nosync nounwind willreturn memory(read, inaccessiblemem: none) uwtable
define noundef i32 @_ZNK3g2o10HyperGraph4Edge20numUndefinedVerticesEv(ptr noundef nonnull readonly align 8 captures(none) dereferenceable(36) %0) local_unnamed_addr #5 align 2 {
  %2 = getelementptr inbounds nuw i8, ptr %0, i64 8
  %3 = load ptr, ptr %2, align 8, !tbaa !40
  %4 = getelementptr inbounds nuw i8, ptr %0, i64 16
  %5 = load ptr, ptr %4, align 8, !tbaa !40
  %.not4.i.i = icmp eq ptr %3, %5
  br i1 %.not4.i.i, label %"_ZSt8count_ifIN9__gnu_cxx17__normal_iteratorIPKPN3g2o10HyperGraph6VertexESt6vectorIS5_SaIS5_EEEEZNKS3_4Edge20numUndefinedVerticesEvE3$_0ENSt15iterator_traitsIT_E15difference_typeESF_SF_T0_.exit", label %.lr.ph.i.i

.lr.ph.i.i:                                       ; preds = %1, %.lr.ph.i.i
  %.06.i.i = phi i32 [ %spec.select.i.i, %.lr.ph.i.i ], [ 0, %1 ]
  %.sroa.02.05.i.i = phi ptr [ %9, %.lr.ph.i.i ], [ %3, %1 ]
  %6 = load ptr, ptr %.sroa.02.05.i.i, align 8, !tbaa !41
  %7 = icmp eq ptr %6, null
  %8 = zext i1 %7 to i32
  %spec.select.i.i = add i32 %.06.i.i, %8
  %9 = getelementptr inbounds nuw i8, ptr %.sroa.02.05.i.i, i64 8
  %.not.i.i = icmp eq ptr %9, %5
  br i1 %.not.i.i, label %"_ZSt8count_ifIN9__gnu_cxx17__normal_iteratorIPKPN3g2o10HyperGraph6VertexESt6vectorIS5_SaIS5_EEEEZNKS3_4Edge20numUndefinedVerticesEvE3$_0ENSt15iterator_traitsIT_E15difference_typeESF_SF_T0_.exit", label %.lr.ph.i.i, !llvm.loop !43

"_ZSt8count_ifIN9__gnu_cxx17__normal_iteratorIPKPN3g2o10HyperGraph6VertexESt6vectorIS5_SaIS5_EEEEZNKS3_4Edge20numUndefinedVerticesEvE3$_0ENSt15iterator_traitsIT_E15difference_typeESF_SF_T0_.exit": ; preds = %.lr.ph.i.i, %1
  %.0.lcssa.i.i = phi i32 [ 0, %1 ], [ %spec.select.i.i, %.lr.ph.i.i ]
  ret i32 %.0.lcssa.i.i
}